target datalayout = "e-m:e-p270:32:32-p271:32:32-p272:64:64-i64:64-i128:128-f80:128-n8:16:32:64-S128"
target triple = "x86_64-unknown-linux-gnu"

%"class.QuantLib::Date" = type { i64 }

; Function Attrs: mustprogress uwtable
define noundef double @_ZNK8QuantLib4Bond13accruedAmountENS_4DateE(ptr noundef nonnull align 8 dereferenceable(248) %this, i64 %settlement.coerce) unnamed_addr #2 align 2 {
entry:
  %retval = alloca double, align 8
  %settlement = alloca %"class.QuantLib::Date", align 8
  %this.addr = alloca ptr, align 8
  %currentNotional = alloca double, align 8
  %agg.tmp = alloca %"class.QuantLib::Date", align 8
  %cleanup.dest.slot = alloca i32, align 4
  %agg.tmp3 = alloca %"class.QuantLib::Date", align 8
  %coerce.dive = getelementptr inbounds nuw %"class.QuantLib::Date", ptr %settlement, i32 0, i32 0
  store i64 %settlement.coerce, ptr %coerce.dive, align 8
  store ptr %this, ptr %this.addr, align 8, !tbaa !3
  %this1 = load ptr, ptr %this.addr, align 8
  call void @llvm.lifetime.start.p0(i64 8, ptr %currentNotional) #17
  call void @llvm.memcpy.p0.p0.i64(ptr align 8 %agg.tmp, ptr align 8 %settlement, i64 8, i1 false), !tbaa.struct !55
  %coerce.dive2 = getelementptr inbounds nuw %"class.QuantLib::Date", ptr %agg.tmp, i32 0, i32 0
  %0 = load i64, ptr %coerce.dive2, align 8
  %vtable = load ptr, ptr %this1, align 8, !tbaa !20
  %vfn = getelementptr inbounds ptr, ptr %vtable, i64 10
  %1 = load ptr, ptr %vfn, align 8
  %call = call noundef double %1(ptr noundef nonnull align 8 dereferenceable(248) %this1, i64 %0)
  store double %call, ptr %currentNotional, align 8, !tbaa !62
  %2 = load double, ptr %currentNotional, align 8, !tbaa !62
  %cmp = fcmp oeq double %2, 0.000000e+00
  br i1 %cmp, label %if.then, label %if.end

if.then:                                          ; preds = %entry
  store double 0.000000e+00, ptr %retval, align 8
  store i32 1, ptr %cleanup.dest.slot, align 4
  br label %cleanup

if.end:                                           ; preds = %entry
  call void @llvm.memcpy.p0.p0.i64(ptr align 8 %agg.tmp3, ptr align 8 %settlement, i64 8, i1 false), !tbaa.struct !55
  %coerce.dive4 = getelementptr inbounds nuw %"class.QuantLib::Date", ptr %agg.tmp3, i32 0, i32 0
  %3 = load i64, ptr %coerce.dive4, align 8
  %call5 = call noundef double @_ZN8QuantLib13BondFunctions13accruedAmountERKNS_4BondENS_4DateE(ptr noundef nonnull align 8 dereferenceable(248) %this1, i64 %3)
  store double %call5, ptr %retval, align 8
  store i32 1, ptr %cleanup.dest.slot, align 4
  br label %cleanup

cleanup:                                          ; preds = %if.end, %if.then
  call void @llvm.lifetime.end.p0(i64 8, ptr %currentNotional) #17
  %4 = load double, ptr %retval, align 8
  ret double %4
}